; Function Attrs: mustprogress nofree norecurse nosync nounwind willreturn memory(readwrite, inaccessiblemem: none) uwtable
define hidden void @_ZN9Assembler5rcpssE11XMMRegisterS0_(ptr noundef nonnull align 8 dereferenceable(40) %0, i32 %1, i32 %2) local_unnamed_addr #8 align 2 {
  %4 = alloca %class.InstructionAttr, align 8
  %5 = load i32, ptr @UseAVX, align 4
  store <8 x i8> <i8 0, i8 1, i8 1, i8 0, i8 0, i8 0, i8 1, i8 0>, ptr %4, align 8
  %6 = getelementptr inbounds i8, ptr %4, i64 8
  store <4 x i32> <i32 0, i32 24, i32 4, i32 0>, ptr %6, align 8
  %7 = getelementptr inbounds i8, ptr %4, i64 24
  store i32 0, ptr %7, align 8
  %8 = getelementptr inbounds i8, ptr %4, i64 32
  store ptr null, ptr %8, align 8
  %9 = sext i32 %1 to i64
  %10 = getelementptr inbounds %"class.XMMRegister::XMMRegisterImpl", ptr getelementptr inbounds (i8, ptr @all_XMMRegisterImpls, i64 1), i64 %9
  %11 = ptrtoint ptr %10 to i64
  %12 = trunc i64 %11 to i32
  %13 = sub i32 %12, ptrtoint (ptr getelementptr inbounds (i8, ptr @all_XMMRegisterImpls, i64 1) to i32)
  %14 = sext i32 %2 to i64
  %15 = getelementptr inbounds %"class.XMMRegister::XMMRegisterImpl", ptr getelementptr inbounds (i8, ptr @all_XMMRegisterImpls, i64 1), i64 %14
  %16 = ptrtoint ptr %15 to i64
  %17 = trunc i64 %16 to i32
  %18 = sub i32 %17, ptrtoint (ptr getelementptr inbounds (i8, ptr @all_XMMRegisterImpls, i64 1) to i32)
  %19 = icmp sgt i32 %5, 0
  br i1 %19, label %20, label %23

20:                                               ; preds = %3
  %21 = icmp ult i32 %13, 32
  %spec.select.i = select i1 %21, i32 %13, i32 0
  %22 = call noundef i32 @_ZN9Assembler21vex_prefix_and_encodeEiiiNS_13VexSimdPrefixENS_9VexOpcodeEP15InstructionAttrb(ptr noundef nonnull align 8 dereferenceable(40) %0, i32 noundef %13, i32 noundef %spec.select.i, i32 noundef %18, i32 noundef 2, i32 noundef 1, ptr noundef nonnull %4, i1 noundef zeroext false)
  br label %_ZN9Assembler22simd_prefix_and_encodeE11XMMRegisterS0_S0_NS_13VexSimdPrefixENS_9VexOpcodeEP15InstructionAttrb.exit

23:                                               ; preds = %3
  %24 = tail call noundef i32 @_ZN9Assembler21rex_prefix_and_encodeEiiNS_13VexSimdPrefixENS_9VexOpcodeEb(ptr noundef nonnull align 8 dereferenceable(40) %0, i32 noundef %13, i32 noundef %18, i32 noundef 2, i32 noundef 1, i1 noundef zeroext false)
  br label %_ZN9Assembler22simd_prefix_and_encodeE11XMMRegisterS0_S0_NS_13VexSimdPrefixENS_9VexOpcodeEP15InstructionAttrb.exit

_ZN9Assembler22simd_prefix_and_encodeE11XMMRegisterS0_S0_NS_13VexSimdPrefixENS_9VexOpcodeEP15InstructionAttrb.exit: ; preds = %20, %23
  %.0.i = phi i32 [ %22, %20 ], [ %24, %23 ]
  %25 = getelementptr inbounds i8, ptr %0, i64 8
  %26 = load ptr, ptr %25, align 8
  %27 = trunc i32 %.0.i to i8
  %.0.i2.i = or i8 %27, -64
  %28 = getelementptr inbounds i8, ptr %26, i64 16
  %29 = load ptr, ptr %28, align 8
  %30 = getelementptr inbounds i8, ptr %29, i64 1
  store i8 83, ptr %29, align 1
  %31 = getelementptr inbounds i8, ptr %29, i64 2
  store i8 %.0.i2.i, ptr %30, align 1
  store ptr %31, ptr %28, align 8
  %32 = load ptr, ptr %8, align 8
  %.not.i = icmp eq ptr %32, null
  br i1 %.not.i, label %_ZN15InstructionAttrD2Ev.exit, label %33

33:                                               ; preds = %_ZN9Assembler22simd_prefix_and_encodeE11XMMRegisterS0_S0_NS_13VexSimdPrefixENS_9VexOpcodeEP15InstructionAttrb.exit
  %34 = getelementptr inbounds i8, ptr %32, i64 32
  store ptr null, ptr %34, align 8
  br label %_ZN15InstructionAttrD2Ev.exit

_ZN15InstructionAttrD2Ev.exit:                    ; preds = %_ZN9Assembler22simd_prefix_and_encodeE11XMMRegisterS0_S0_NS_13VexSimdPrefixENS_9VexOpcodeEP15InstructionAttrb.exit, %33
  ret void
}